target datalayout = "e-m:e-p270:32:32-p271:32:32-p272:64:64-i64:64-i128:128-f80:128-n8:16:32:64-S128"
target triple = "x86_64-pc-linux-gnu"

%struct.cmac_ctx_st = type { %struct.evp_cipher_ctx_st, [16 x i8], [16 x i8], [16 x i8], i32 }
%struct.evp_cipher_ctx_st = type { ptr, ptr, ptr, i32, i32, i32, [16 x i8], [16 x i8], [32 x i8], i32, i32, i32, i32, [32 x i8] }

; Function Attrs: nounwind uwtable
define internal void @CMAC_CTX_cleanup(ptr noundef %0) #0 {
  %2 = alloca ptr, align 8
  store ptr %0, ptr %2, align 8, !tbaa !17
  %3 = load ptr, ptr %2, align 8, !tbaa !17
  %4 = getelementptr inbounds nuw %struct.cmac_ctx_st, ptr %3, i32 0, i32 0
  %5 = call i32 @EVP_CIPHER_CTX_cleanup(ptr noundef %4)
  %6 = load ptr, ptr %2, align 8, !tbaa !17
  %7 = getelementptr inbounds nuw %struct.cmac_ctx_st, ptr %6, i32 0, i32 1
  %8 = getelementptr inbounds [16 x i8], ptr %7, i64 0, i64 0
  call void @OPENSSL_cleanse(ptr noundef %8, i64 noundef 16)
  %9 = load ptr, ptr %2, align 8, !tbaa !17
  %10 = getelementptr inbounds nuw %struct.cmac_ctx_st, ptr %9, i32 0, i32 2
  %11 = getelementptr inbounds [16 x i8], ptr %10, i64 0, i64 0
  call void @OPENSSL_cleanse(ptr noundef %11, i64 noundef 16)
  %12 = load ptr, ptr %2, align 8, !tbaa !17
  %13 = getelementptr inbounds nuw %struct.cmac_ctx_st, ptr %12, i32 0, i32 3
  %14 = getelementptr inbounds [16 x i8], ptr %13, i64 0, i64 0
  call void @OPENSSL_cleanse(ptr noundef %14, i64 noundef 16)
  ret void
}

; Function Attrs: nounwind uwtable
define hidden void @CMAC_CTX_free(ptr noundef %0) #0 {
  %2 = alloca ptr, align 8
  store ptr %0, ptr %2, align 8, !tbaa !17
  %3 = load ptr, ptr %2, align 8, !tbaa !17
  %4 = icmp eq ptr %3, null
  br i1 %4, label %5, label %6

5:                                                ; preds = %1
  br label %9

6:                                                ; preds = %1
  %7 = load ptr, ptr %2, align 8, !tbaa !17
  call void @CMAC_CTX_cleanup(ptr noundef %7)
  %8 = load ptr, ptr %2, align 8, !tbaa !17
  call void @free(ptr noundef %8) #7
  br label %9

9:                                                ; preds = %6, %5
  ret void
}