; Function Attrs: nounwind uwtable
define hidden void @CMAC_CTX_free(ptr noundef %0) local_unnamed_addr #0 {
  %2 = icmp eq ptr %0, null
  br i1 %2, label %8, label %3

3:                                                ; preds = %1
  %4 = tail call i32 @EVP_CIPHER_CTX_cleanup(ptr noundef nonnull %0) #8
  %5 = getelementptr inbounds nuw i8, ptr %0, i64 152
  tail call void @OPENSSL_cleanse(ptr noundef nonnull %5, i64 noundef 16) #8
  %6 = getelementptr inbounds nuw i8, ptr %0, i64 168
  tail call void @OPENSSL_cleanse(ptr noundef nonnull %6, i64 noundef 16) #8
  %7 = getelementptr inbounds nuw i8, ptr %0, i64 184
  tail call void @OPENSSL_cleanse(ptr noundef nonnull %7, i64 noundef 16) #8
  tail call void @free(ptr noundef nonnull %0) #8
  br label %8

8:                                                ; preds = %1, %3
  ret void
}